target datalayout = "e-m:e-p270:32:32-p271:32:32-p272:64:64-i64:64-i128:128-f80:128-n8:16:32:64-S128"
target triple = "x86_64-pc-linux-gnu"

%struct._zend_array = type { %struct._zend_refcounted_h, %union.anon.6, i32, %union.anon.8, i32, i32, i32, i32, i64, ptr }
%struct._zend_refcounted_h = type { i32, %union.anon }
%union.anon = type { i32 }
%union.anon.6 = type { i32 }
%union.anon.8 = type { ptr }
%struct._zval_struct = type { %union._zend_value, %union.anon.0, %union.anon.3 }
%union._zend_value = type { i64 }
%union.anon.0 = type { i32 }
%union.anon.3 = type { i32 }
%struct._zend_generator = type { %struct._zend_object, ptr, ptr, %struct._zval_struct, %struct._zval_struct, %struct._zval_struct, ptr, i64, %struct._zval_struct, %struct._zend_generator_node, %struct._zend_execute_data, ptr, i8 }
%struct._zend_object = type { %struct._zend_refcounted_h, i32, i32, ptr, ptr, ptr, [1 x %struct._zval_struct] }
%struct._zend_generator_node = type { ptr, i32, %union.anon.4, %union.anon.5 }
%union.anon.4 = type { ptr }
%union.anon.5 = type { ptr }
%struct._zend_execute_data = type { ptr, ptr, ptr, ptr, %struct._zval_struct, ptr, ptr, ptr, ptr }
%struct.anon.9 = type { i8, [3 x i8], i32, ptr, ptr, ptr, i32, i32, ptr, ptr, ptr, ptr, i32, ptr }
%struct._zend_string = type { %struct._zend_refcounted_h, i64, i64, [1 x i8] }
%struct._zend_class_entry = type { i8, ptr, %union.anon.10, i32, i32, i32, i32, ptr, ptr, ptr, %struct._zend_array, %struct._zend_array, %struct._zend_array, ptr, ptr, ptr, ptr, ptr, ptr, ptr, ptr, ptr, ptr, ptr, ptr, ptr, ptr, ptr, ptr, ptr, ptr, ptr, %union.anon.11, ptr, ptr, ptr, ptr, i32, i32, i32, i32, %union.anon.12, ptr, ptr, ptr, ptr, i32, ptr, ptr, %union.anon.13 }
%union.anon.10 = type { ptr }
%union.anon.11 = type { ptr }
%union.anon.12 = type { ptr }
%union.anon.13 = type { %struct.anon.14 }
%struct.anon.14 = type { ptr, i32, i32 }

@.str.6 = private unnamed_addr constant [3 x i8] c"::\00", align 1
@zend_known_strings = external global ptr, align 8

; Function Attrs: alwaysinline nounwind uwtable
define internal i32 @zend_gc_addref(ptr noundef %0) #2 {
  %2 = alloca ptr, align 8
  store ptr %0, ptr %2, align 8, !tbaa !113
  br label %3

3:                                                ; preds = %1
  br label %4

4:                                                ; preds = %3
  %5 = load ptr, ptr %2, align 8, !tbaa !113
  %6 = getelementptr inbounds nuw %struct._zend_refcounted_h, ptr %5, i32 0, i32 0
  %7 = load i32, ptr %6, align 4, !tbaa !115
  %8 = add i32 %7, 1
  store i32 %8, ptr %6, align 4, !tbaa !115
  ret i32 %8
}

; Function Attrs: alwaysinline nounwind uwtable
define internal i32 @zval_gc_flags(i32 noundef %0) #2 {
  %2 = alloca i32, align 4
  store i32 %0, ptr %2, align 4, !tbaa !32
  %3 = load i32, ptr %2, align 4, !tbaa !32
  %4 = lshr i32 %3, 0
  %5 = and i32 %4, 1008
  ret i32 %5
}

; Function Attrs: nounwind uwtable
define hidden void @zim_Generator___debugInfo(ptr noundef %0, ptr noundef %1) #0 {
  %3 = alloca ptr, align 8
  %4 = alloca ptr, align 8
  %5 = alloca ptr, align 8
  %6 = alloca i32, align 4
  %7 = alloca ptr, align 8
  %8 = alloca ptr, align 8
  %9 = alloca ptr, align 8
  %10 = alloca %struct._zval_struct, align 8
  %11 = alloca ptr, align 8
  %12 = alloca ptr, align 8
  %13 = alloca ptr, align 8
  %14 = alloca ptr, align 8
  %15 = alloca ptr, align 8
  %16 = alloca ptr, align 8
  %17 = alloca ptr, align 8
  store ptr %0, ptr %3, align 8, !tbaa !9
  store ptr %1, ptr %4, align 8, !tbaa !36
  call void @llvm.lifetime.start.p0(i64 8, ptr %5) #11
  br label %18

18:                                               ; preds = %2
  %19 = load ptr, ptr %3, align 8, !tbaa !9
  %20 = getelementptr inbounds nuw %struct._zend_execute_data, ptr %19, i32 0, i32 4
  %21 = getelementptr inbounds nuw %struct._zval_struct, ptr %20, i32 0, i32 2
  %22 = load i32, ptr %21, align 4, !tbaa !26
  %23 = icmp ne i32 %22, 0
  %24 = xor i1 %23, true
  %25 = xor i1 %24, true
  %26 = zext i1 %25 to i32
  %27 = sext i32 %26 to i64
  %28 = call i64 @llvm.expect.i64(i64 %27, i64 0)
  %29 = icmp ne i64 %28, 0
  br i1 %29, label %30, label %31

30:                                               ; preds = %18
  call void @zend_wrong_parameters_none_error()
  store i32 1, ptr %6, align 4
  br label %121

31:                                               ; preds = %18
  br label %32

32:                                               ; preds = %31
  br label %33

33:                                               ; preds = %32
  %34 = load ptr, ptr %3, align 8, !tbaa !9
  %35 = getelementptr inbounds nuw %struct._zend_execute_data, ptr %34, i32 0, i32 4
  %36 = getelementptr inbounds nuw %struct._zval_struct, ptr %35, i32 0, i32 0
  %37 = load ptr, ptr %36, align 8, !tbaa !26
  store ptr %37, ptr %5, align 8, !tbaa !4
  br label %38

38:                                               ; preds = %33
  call void @llvm.lifetime.start.p0(i64 8, ptr %7) #11
  %39 = call ptr @_zend_new_array_0()
  store ptr %39, ptr %7, align 8, !tbaa !72
  call void @llvm.lifetime.start.p0(i64 8, ptr %8) #11
  %40 = load ptr, ptr %4, align 8, !tbaa !36
  store ptr %40, ptr %8, align 8, !tbaa !36
  %41 = load ptr, ptr %7, align 8, !tbaa !72
  %42 = load ptr, ptr %8, align 8, !tbaa !36
  %43 = getelementptr inbounds nuw %struct._zval_struct, ptr %42, i32 0, i32 0
  store ptr %41, ptr %43, align 8, !tbaa !26
  %44 = load ptr, ptr %8, align 8, !tbaa !36
  %45 = getelementptr inbounds nuw %struct._zval_struct, ptr %44, i32 0, i32 1
  store i32 775, ptr %45, align 8, !tbaa !26
  call void @llvm.lifetime.end.p0(i64 8, ptr %8) #11
  call void @llvm.lifetime.end.p0(i64 8, ptr %7) #11
  br label %46

46:                                               ; preds = %38
  br label %47

47:                                               ; preds = %46
  call void @llvm.lifetime.start.p0(i64 8, ptr %9) #11
  %48 = load ptr, ptr %5, align 8, !tbaa !4
  %49 = getelementptr inbounds nuw %struct._zend_generator, ptr %48, i32 0, i32 11
  %50 = load ptr, ptr %49, align 8, !tbaa !149
  store ptr %50, ptr %9, align 8, !tbaa !33
  call void @llvm.lifetime.start.p0(i64 16, ptr %10) #11
  %51 = load ptr, ptr %9, align 8, !tbaa !33
  %52 = getelementptr inbounds nuw %struct.anon.9, ptr %51, i32 0, i32 4
  %53 = load ptr, ptr %52, align 8, !tbaa !26
  %54 = icmp ne ptr %53, null
  br i1 %54, label %55, label %86

55:                                               ; preds = %47
  call void @llvm.lifetime.start.p0(i64 8, ptr %11) #11
  %56 = load ptr, ptr %9, align 8, !tbaa !33
  %57 = getelementptr inbounds nuw %struct.anon.9, ptr %56, i32 0, i32 4
  %58 = load ptr, ptr %57, align 8, !tbaa !26
  %59 = getelementptr inbounds nuw %struct._zend_class_entry, ptr %58, i32 0, i32 1
  %60 = load ptr, ptr %59, align 8, !tbaa !139
  store ptr %60, ptr %11, align 8, !tbaa !120
  call void @llvm.lifetime.start.p0(i64 8, ptr %12) #11
  %61 = load ptr, ptr %9, align 8, !tbaa !33
  %62 = getelementptr inbounds nuw %struct.anon.9, ptr %61, i32 0, i32 3
  %63 = load ptr, ptr %62, align 8, !tbaa !26
  store ptr %63, ptr %12, align 8, !tbaa !120
  call void @llvm.lifetime.start.p0(i64 8, ptr %13) #11
  %64 = load ptr, ptr %11, align 8, !tbaa !120
  %65 = getelementptr inbounds nuw %struct._zend_string, ptr %64, i32 0, i32 3
  %66 = getelementptr inbounds [1 x i8], ptr %65, i64 0, i64 0
  %67 = load ptr, ptr %11, align 8, !tbaa !120
  %68 = getelementptr inbounds nuw %struct._zend_string, ptr %67, i32 0, i32 2
  %69 = load i64, ptr %68, align 8, !tbaa !150
  %70 = load ptr, ptr %12, align 8, !tbaa !120
  %71 = getelementptr inbounds nuw %struct._zend_string, ptr %70, i32 0, i32 3
  %72 = getelementptr inbounds [1 x i8], ptr %71, i64 0, i64 0
  %73 = load ptr, ptr %12, align 8, !tbaa !120
  %74 = getelementptr inbounds nuw %struct._zend_string, ptr %73, i32 0, i32 2
  %75 = load i64, ptr %74, align 8, !tbaa !150
  %76 = call ptr @zend_string_concat3(ptr noundef %66, i64 noundef %69, ptr noundef @.str.6, i64 noundef 2, ptr noundef %72, i64 noundef %75)
  store ptr %76, ptr %13, align 8, !tbaa !120
  br label %77

77:                                               ; preds = %55
  call void @llvm.lifetime.start.p0(i64 8, ptr %14) #11
  store ptr %10, ptr %14, align 8, !tbaa !36
  call void @llvm.lifetime.start.p0(i64 8, ptr %15) #11
  %78 = load ptr, ptr %13, align 8, !tbaa !120
  store ptr %78, ptr %15, align 8, !tbaa !120
  %79 = load ptr, ptr %15, align 8, !tbaa !120
  %80 = load ptr, ptr %14, align 8, !tbaa !36
  %81 = getelementptr inbounds nuw %struct._zval_struct, ptr %80, i32 0, i32 0
  store ptr %79, ptr %81, align 8, !tbaa !26
  %82 = load ptr, ptr %14, align 8, !tbaa !36
  %83 = getelementptr inbounds nuw %struct._zval_struct, ptr %82, i32 0, i32 1
  store i32 262, ptr %83, align 8, !tbaa !26
  call void @llvm.lifetime.end.p0(i64 8, ptr %15) #11
  call void @llvm.lifetime.end.p0(i64 8, ptr %14) #11
  br label %84

84:                                               ; preds = %77
  br label %85

85:                                               ; preds = %84
  call void @llvm.lifetime.end.p0(i64 8, ptr %13) #11
  call void @llvm.lifetime.end.p0(i64 8, ptr %12) #11
  call void @llvm.lifetime.end.p0(i64 8, ptr %11) #11
  br label %113

86:                                               ; preds = %47
  br label %87

87:                                               ; preds = %86
  call void @llvm.lifetime.start.p0(i64 8, ptr %16) #11
  store ptr %10, ptr %16, align 8, !tbaa !36
  call void @llvm.lifetime.start.p0(i64 8, ptr %17) #11
  %88 = load ptr, ptr %9, align 8, !tbaa !33
  %89 = getelementptr inbounds nuw %struct.anon.9, ptr %88, i32 0, i32 3
  %90 = load ptr, ptr %89, align 8, !tbaa !26
  store ptr %90, ptr %17, align 8, !tbaa !120
  %91 = load ptr, ptr %17, align 8, !tbaa !120
  %92 = load ptr, ptr %16, align 8, !tbaa !36
  %93 = getelementptr inbounds nuw %struct._zval_struct, ptr %92, i32 0, i32 0
  store ptr %91, ptr %93, align 8, !tbaa !26
  %94 = load ptr, ptr %17, align 8, !tbaa !120
  %95 = getelementptr inbounds nuw %struct._zend_string, ptr %94, i32 0, i32 0
  %96 = getelementptr inbounds nuw %struct._zend_refcounted_h, ptr %95, i32 0, i32 1
  %97 = load i32, ptr %96, align 4, !tbaa !26
  %98 = call i32 @zval_gc_flags(i32 noundef %97)
  %99 = and i32 %98, 64
  %100 = icmp ne i32 %99, 0
  br i1 %100, label %101, label %104

101:                                              ; preds = %87
  %102 = load ptr, ptr %16, align 8, !tbaa !36
  %103 = getelementptr inbounds nuw %struct._zval_struct, ptr %102, i32 0, i32 1
  store i32 6, ptr %103, align 8, !tbaa !26
  br label %110

104:                                              ; preds = %87
  %105 = load ptr, ptr %17, align 8, !tbaa !120
  %106 = getelementptr inbounds nuw %struct._zend_string, ptr %105, i32 0, i32 0
  %107 = call i32 @zend_gc_addref(ptr noundef %106)
  %108 = load ptr, ptr %16, align 8, !tbaa !36
  %109 = getelementptr inbounds nuw %struct._zval_struct, ptr %108, i32 0, i32 1
  store i32 262, ptr %109, align 8, !tbaa !26
  br label %110

110:                                              ; preds = %104, %101
  call void @llvm.lifetime.end.p0(i64 8, ptr %17) #11
  call void @llvm.lifetime.end.p0(i64 8, ptr %16) #11
  br label %111

111:                                              ; preds = %110
  br label %112

112:                                              ; preds = %111
  br label %113

113:                                              ; preds = %112, %85
  %114 = load ptr, ptr %4, align 8, !tbaa !36
  %115 = getelementptr inbounds nuw %struct._zval_struct, ptr %114, i32 0, i32 0
  %116 = load ptr, ptr %115, align 8, !tbaa !26
  %117 = load ptr, ptr @zend_known_strings, align 8, !tbaa !152
  %118 = getelementptr inbounds ptr, ptr %117, i64 2
  %119 = load ptr, ptr %118, align 8, !tbaa !120
  %120 = call ptr @zend_hash_update(ptr noundef %116, ptr noundef %119, ptr noundef %10)
  call void @llvm.lifetime.end.p0(i64 16, ptr %10) #11
  call void @llvm.lifetime.end.p0(i64 8, ptr %9) #11
  store i32 0, ptr %6, align 4
  br label %121

121:                                              ; preds = %113, %30
  call void @llvm.lifetime.end.p0(i64 8, ptr %5) #11
  %122 = load i32, ptr %6, align 4
  switch i32 %122, label %124 [
    i32 0, label %123
    i32 1, label %123
  ]

123:                                              ; preds = %121, %121
  ret void

124:                                              ; preds = %121
  unreachable
}