; Function Attrs: nounwind uwtable
define hidden void @zim_Generator___debugInfo(ptr noundef readonly captures(none) %0, ptr noundef captures(none) %1) #0 {
  %3 = alloca %struct._zval_struct, align 8
  %4 = getelementptr inbounds nuw i8, ptr %0, i64 44
  %5 = load i32, ptr %4, align 4, !tbaa !24
  %.not = icmp eq i32 %5, 0
  br i1 %.not, label %7, label %6, !prof !58

6:                                                ; preds = %2
  tail call void @zend_wrong_parameters_none_error() #11
  br label %44

7:                                                ; preds = %2
  %8 = getelementptr inbounds nuw i8, ptr %0, i64 32
  %9 = load ptr, ptr %8, align 8, !tbaa !24
  %10 = tail call ptr @_zend_new_array_0() #11
  store ptr %10, ptr %1, align 8, !tbaa !24
  %11 = getelementptr inbounds nuw i8, ptr %1, i64 8
  store i32 775, ptr %11, align 8, !tbaa !24
  %12 = getelementptr inbounds nuw i8, ptr %9, i64 264
  %13 = load ptr, ptr %12, align 8, !tbaa !140
  call void @llvm.lifetime.start.p0(i64 16, ptr nonnull %3) #11
  %14 = getelementptr inbounds nuw i8, ptr %13, i64 16
  %15 = load ptr, ptr %14, align 8, !tbaa !24
  %.not26 = icmp eq ptr %15, null
  br i1 %.not26, label %28, label %16

16:                                               ; preds = %7
  %17 = getelementptr inbounds nuw i8, ptr %15, i64 8
  %18 = load ptr, ptr %17, align 8, !tbaa !130
  %19 = getelementptr inbounds nuw i8, ptr %13, i64 8
  %20 = load ptr, ptr %19, align 8, !tbaa !24
  %21 = getelementptr inbounds nuw i8, ptr %18, i64 24
  %22 = getelementptr inbounds nuw i8, ptr %18, i64 16
  %23 = load i64, ptr %22, align 8, !tbaa !141
  %24 = getelementptr inbounds nuw i8, ptr %20, i64 24
  %25 = getelementptr inbounds nuw i8, ptr %20, i64 16
  %26 = load i64, ptr %25, align 8, !tbaa !141
  %27 = tail call ptr @zend_string_concat3(ptr noundef nonnull %21, i64 noundef %23, ptr noundef nonnull @.str.6, i64 noundef 2, ptr noundef nonnull %24, i64 noundef %26) #11
  store ptr %27, ptr %3, align 8, !tbaa !24
  br label %37

28:                                               ; preds = %7
  %29 = getelementptr inbounds nuw i8, ptr %13, i64 8
  %30 = load ptr, ptr %29, align 8, !tbaa !24
  store ptr %30, ptr %3, align 8, !tbaa !24
  %31 = getelementptr inbounds nuw i8, ptr %30, i64 4
  %32 = load i32, ptr %31, align 4, !tbaa !24
  %33 = and i32 %32, 64
  %.not27 = icmp eq i32 %33, 0
  br i1 %.not27, label %34, label %37

34:                                               ; preds = %28
  %35 = load i32, ptr %30, align 4, !tbaa !65
  %36 = add i32 %35, 1
  store i32 %36, ptr %30, align 4, !tbaa !65
  br label %37

37:                                               ; preds = %28, %34, %16
  %.sink = phi i32 [ 262, %34 ], [ 262, %16 ], [ 6, %28 ]
  %38 = getelementptr inbounds nuw i8, ptr %3, i64 8
  store i32 %.sink, ptr %38, align 8, !tbaa !24
  %39 = load ptr, ptr %1, align 8, !tbaa !24
  %40 = load ptr, ptr @zend_known_strings, align 8, !tbaa !143
  %41 = getelementptr inbounds nuw i8, ptr %40, i64 16
  %42 = load ptr, ptr %41, align 8, !tbaa !144
  %43 = call ptr @zend_hash_update(ptr noundef %39, ptr noundef %42, ptr noundef nonnull %3) #11
  call void @llvm.lifetime.end.p0(i64 16, ptr nonnull %3) #11
  br label %44

44:                                               ; preds = %37, %6
  ret void
}